(dp1
S'Lucy'
p2
ccopy_reg
_reconstructor
p3
(c__main__
Person
p4
c__builtin__
object
p5
NtRp6
(dp7
S'phone'
p8
S'13330133130'
p9
sS'age'
p10
S'23'
p11
sS'address'
p12
S'u'
sS'name'
p13
g2
sS'sex'
p14
S'female'
p15
sbs.